target datalayout = "e-m:e-p270:32:32-p271:32:32-p272:64:64-i64:64-i128:128-f80:128-n8:16:32:64-S128"
target triple = "x86_64-pc-linux-gnu"

; Function Attrs: null_pointer_is_valid sspstrong uwtable
define internal zeroext i1 @test_smpp(ptr noundef %0, ptr noundef %1, i32 noundef %2, ptr noundef %3) #0 {
  %5 = alloca i1, align 1
  %6 = alloca ptr, align 8
  %7 = alloca ptr, align 8
  %8 = alloca i32, align 4
  %9 = alloca ptr, align 8
  %10 = alloca i32, align 4
  %11 = alloca i32, align 4
  %12 = alloca i32, align 4
  %13 = alloca i32, align 4
  store ptr %0, ptr %6, align 8
  store ptr %1, ptr %7, align 8
  store i32 %2, ptr %8, align 4
  store ptr %3, ptr %9, align 8
  call void @llvm.lifetime.start.p0(i64 4, ptr %10) #10
  call void @llvm.lifetime.start.p0(i64 4, ptr %11) #10
  call void @llvm.lifetime.start.p0(i64 4, ptr %12) #10
  %14 = load ptr, ptr %7, align 8
  %15 = load i32, ptr %8, align 4
  %16 = call i32 @tvb_reported_length_remaining(ptr noundef %14, i32 noundef %15)
  %17 = icmp slt i32 %16, 16
  br i1 %17, label %23, label %18

18:                                               ; preds = %4
  %19 = load ptr, ptr %7, align 8
  %20 = load i32, ptr %8, align 4
  %21 = call i32 @tvb_captured_length_remaining(ptr noundef %19, i32 noundef %20)
  %22 = icmp slt i32 %21, 12
  br i1 %22, label %23, label %24

23:                                               ; preds = %18, %4
  store i1 false, ptr %5, align 1
  store i32 1, ptr %13, align 4
  br label %53

24:                                               ; preds = %18
  %25 = load ptr, ptr %7, align 8
  %26 = load i32, ptr %8, align 4
  %27 = call i32 @tvb_get_ntohl(ptr noundef %25, i32 noundef %26)
  store i32 %27, ptr %12, align 4
  %28 = load i32, ptr %12, align 4
  %29 = icmp ugt i32 %28, 65536
  br i1 %29, label %33, label %30

30:                                               ; preds = %24
  %31 = load i32, ptr %12, align 4
  %32 = icmp ult i32 %31, 16
  br i1 %32, label %33, label %34

33:                                               ; preds = %30, %24
  store i1 false, ptr %5, align 1
  store i32 1, ptr %13, align 4
  br label %53

34:                                               ; preds = %30
  %35 = load ptr, ptr %7, align 8
  %36 = load i32, ptr %8, align 4
  %37 = add i32 %36, 4
  %38 = call i32 @tvb_get_ntohl(ptr noundef %35, i32 noundef %37)
  store i32 %38, ptr %10, align 4
  %39 = load i32, ptr %10, align 4
  %40 = call ptr @try_val_to_str(i32 noundef %39, ptr noundef @vals_command_id)
  %41 = icmp eq ptr %40, null
  br i1 %41, label %42, label %43

42:                                               ; preds = %34
  store i1 false, ptr %5, align 1
  store i32 1, ptr %13, align 4
  br label %53

43:                                               ; preds = %34
  %44 = load ptr, ptr %7, align 8
  %45 = load i32, ptr %8, align 4
  %46 = add i32 %45, 8
  %47 = call i32 @tvb_get_ntohl(ptr noundef %44, i32 noundef %46)
  store i32 %47, ptr %11, align 4
  %48 = load i32, ptr %11, align 4
  %49 = call ptr @try_rval_to_str(i32 noundef %48, ptr noundef @rvals_command_status)
  %50 = icmp eq ptr %49, null
  br i1 %50, label %51, label %52

51:                                               ; preds = %43
  store i1 false, ptr %5, align 1
  store i32 1, ptr %13, align 4
  br label %53

52:                                               ; preds = %43
  store i1 true, ptr %5, align 1
  store i32 1, ptr %13, align 4
  br label %53

53:                                               ; preds = %52, %51, %42, %33, %23
  call void @llvm.lifetime.end.p0(i64 4, ptr %12) #10
  call void @llvm.lifetime.end.p0(i64 4, ptr %11) #10
  call void @llvm.lifetime.end.p0(i64 4, ptr %10) #10
  %54 = load i1, ptr %5, align 1
  ret i1 %54
}