; Function Attrs: null_pointer_is_valid sspstrong uwtable
define internal fastcc zeroext i1 @test_smpp(ptr noundef %0) unnamed_addr #0 {
  %2 = tail call i32 @tvb_reported_length_remaining(ptr noundef %0, i32 noundef 0)
  %3 = icmp slt i32 %2, 16
  br i1 %3, label %18, label %4

4:                                                ; preds = %1
  %5 = tail call i32 @tvb_captured_length_remaining(ptr noundef %0, i32 noundef 0)
  %6 = icmp slt i32 %5, 12
  br i1 %6, label %18, label %7

7:                                                ; preds = %4
  %8 = tail call i32 @tvb_get_ntohl(ptr noundef %0, i32 noundef 0)
  %9 = add i32 %8, -65537
  %or.cond = icmp ult i32 %9, -65521
  br i1 %or.cond, label %18, label %10

10:                                               ; preds = %7
  %11 = tail call i32 @tvb_get_ntohl(ptr noundef %0, i32 noundef 4)
  %12 = tail call ptr @try_val_to_str(i32 noundef %11, ptr noundef nonnull @vals_command_id)
  %13 = icmp eq ptr %12, null
  br i1 %13, label %18, label %14

14:                                               ; preds = %10
  %15 = tail call i32 @tvb_get_ntohl(ptr noundef %0, i32 noundef 8)
  %16 = tail call ptr @try_rval_to_str(i32 noundef %15, ptr noundef nonnull @rvals_command_status)
  %17 = icmp ne ptr %16, null
  br label %18

18:                                               ; preds = %14, %10, %7, %1, %4
  %.0 = phi i1 [ false, %4 ], [ false, %1 ], [ false, %7 ], [ false, %10 ], [ %17, %14 ]
  ret i1 %.0
}